(lp0
(dp1
S'keywords'
p2
(lp3
sS'pub_year'
p4
V1984
p5
sS'authors'
p6
(lp7
VSM Scheiner
p8
aVJessica Gurevitch
p9
aVJA Teeri
p10
asS'uri'
p11
Vhttp://www.mendeley.com//research/genetic-analysis-photosynthetic-properties-populations-danthonia-spicata-different-growth-responses//
p12
sS'id'
p13
V5434017311
p14
sa(dp15
g2
(lp16
sg4
V1989
p17
sg6
(lp18
VSamuel M. Scheiner
p19
aVRoberta L. Caplan
p20
aVRichard F. Lyman
p21
asg11
Vhttp://www.mendeley.com//research/search-trade-offs-among-life-history-traits-drosophila-melanogaster//
p22
sg13
V4011438383
p23
sa(dp24
g2
(lp25
sg4
V1995
p26
sg6
(lp27
VSara Elizabeth Via
p28
aVRichard Gomulkiewicz
p29
aVGerdien De Jong
p30
aVSamuel M. Scheiner
p31
aVCarl D. Schlichting
p32
aVPeter H. Van Tienderen
p33
asg11
Vhttp://www.mendeley.com//research/adaptive-phenotypic-plasticity-consensus-controversy//
p34
sg13
V3994615993
p35
sa(dp36
g2
(lp37
V13 diversity
p38
aVaffinity
p39
aVcommunity analysis
p40
aVcommunity arrays
p41
aVcommunity variation
p42
aVdekalb
p43
aVdepartment of biological sciences
p44
aVdiversity
p45
aVecological communities
p46
aVecology
p47
aVlandscape mosaics
p48
aVlllionois 60115
p49
aVmosaic diversity
p50
aVnorthern iilionois university
p51
aVnull-hypothesis communities
p52
aVordination
p53
aVplant
p54
aVpresent address
p55
aVrandom
p56
aVstatistical inference
p57
aVusa
p58
asg4
V1987
p59
sg6
(lp60
VConrad A. Istock
p61
aVSamuel M. Scheiner
p62
asg11
Vhttp://www.mendeley.com//research/affinities-high-order-diversity-within-landscape-mosaics//
p63
sg13
V4011438723
p64
sa(dp65
g2
(lp66
Vdiversity
p67
aVmeadow community
p68
aVmosaic diversity
p69
aVrandom simulation
p70
aVsimilarity
p71
asg4
V1987
p72
sg6
(lp73
VSamuel M. Scheiner
p74
aVConrad A. Istock
p75
asg11
Vhttp://www.mendeley.com//research/affinity-analysis-methodologies-statistical-inference-1//
p76
sg13
V4011438643
p77
sa(dp78
g2
(lp79
sg4
V1990
p80
sg6
(lp81
VSamuel M. Scheiner
p82
asg11
Vhttp://www.mendeley.com//research/affinity-analysis-effects-sampling-1//
p83
sg13
V4011438553
p84
sa(dp85
g2
(lp86
sg4
V1978
p87
sg6
(lp88
VJA Teeri
p89
asg11
Vhttp://www.mendeley.com//research/environmental-genetic-control-phenotypic-adaptation-drought-potentilla//
p90
sg13
V5434017341
p91
sa(dp92
g2
(lp93
Vevolutionary
p94
asg4
V1993
p95
sg6
(lp96
VSamuel M. Scheiner
p97
asg11
Vhttp://www.mendeley.com//research/genetics-evolution-phenotypic-plasticity-3//
p98
sg13
V5427859611
p99
sa(dp100
g2
(lp101
Vevolutionary
p102
asg4
V1993
p103
sg6
(lp104
VSamuel M. Scheiner
p105
asg11
Vhttp://www.mendeley.com/c/4011421703/p/5919393/scheiner-1993-genetics-and-the-evolution-of-phenotypic-plasticity/
p106
sg13
V4011421703
p107
sa(dp108
g2
(lp109
sg4
V1992
p110
sg6
(lp111
VSamuel M. Scheiner
p112
asg11
Vhttp://www.mendeley.com//research/grand-syntheses-making-1//
p113
sg13
V4011438673
p114
sa(dp115
g2
(lp116
sg4
V1986
p117
sg6
(lp118
VSamuel M. Scheiner
p119
aVJames A. Teeri
p120
asg11
Vhttp://www.mendeley.com//research/microhabitat-selection-successional-gradient-forest-grass//
p121
sg13
V4011438543
p122
sa(dp123
g2
(lp124
sg4
V1986
p125
sg6
(lp126
VSamuel M. Scheiner
p127
aVJames A. Teeri
p128
asg11
Vhttp://www.mendeley.com//research/phenotypic-flexibility-genetic-adaptation-along-gradient-secondary-forest-succession-grass-danthonia-spicata//
p129
sg13
V4011438363
p130
sa(dp131
g2
(lp132
sg4
V1979
p133
sg6
(lp134
VJA Teeri
p135
aVRS Alberte
p136
asg11
Vhttp://www.mendeley.com//research/photosynthetic-adaptation-solanum-dulcamara-l-sun-shade-environments//
p137
sg13
V5434017251
p138
sa(dp139
g2
(lp140
sg4
V1993
p141
sg6
(lp142
VSamuel M. Scheiner
p143
asg11
Vhttp://www.mendeley.com//research/plasticity-selectable-trait-reply-via-2//
p144
sg13
V5427859631
p145
sa(dp146
g2
(lp147
sg4
V1988
p148
sg6
(lp149
VSamuel M. Scheiner
p150
asg11
Vhttp://www.mendeley.com//research/population-dynamics-herbaceous-perennial-danthonia-spicata-during-secondary-forest-succession-population-dynamics-herbaceous-perennial-danthonia-spicata-during-secondary-forest-succession//
p151
sg13
V4011438513
p152
sa(dp153
g2
(lp154
sg4
V1987
p155
sg6
(lp156
VSamuel M. Scheiner
p157
aVJames A. Teeri
p158
asg11
Vhttp://www.mendeley.com//research/rapid-genotypic-change-population-grass-danthonia-spicata-following-disturbance//
p159
sg13
V4011438523
p160
sa(dp161
g2
(lp162
sg4
V1987
p163
sg6
(lp164
VSamuel M. Scheiner
p165
asg11
Vhttp://www.mendeley.com//research/size-fecundity-hierarchies-herbaceous-perennial//
p166
sg13
V4011438743
p167
sa(dp168
g2
(lp169
sg4
V1989
p170
sg6
(lp171
VNicholas V. L. Brokaw
p172
aVSamuel M. Scheiner
p173
asg11
Vhttp://www.mendeley.com//research/species-composition-gaps-structure-tropical-forest-1//
p174
sg13
V4011438483
p175
sa(dp176
g2
(lp177
sg4
V1984
p178
sg6
(lp179
VSamuel M. Scheiner
p180
aVCharles J. Goodnight
p181
asg11
Vhttp://www.mendeley.com//research/comparison-phenotypic-plasticity-genetic-variation-populations-grass-danthonia-spicata//
p182
sg13
V4011421693
p183
sa(dp184
g2
(lp185
Vanimals
p186
aVfeeding behavior
p187
aVinsects
p188
aVmimulus
p189
aVmimulus: genetics
p190
aVmimulus: immunology
p191
aVphenotype
p192
aVplant epidermis
p193
aVplant epidermis: genetics
p194
aVquantitative trait loci
p195
asg4
V1989
p196
sg6
(lp197
VSamuel M. Scheiner
p198
aVRichard F. Lyman
p199
asg11
Vhttp://www.mendeley.com//research/genetics-phenotypic-plasticity-i-heritability//
p200
sg13
V4011438453
p201
sa(dp202
g2
(lp203
Vdrosophila
p204
aVrealized heritability
p205
asg4
V1991
p206
sg6
(lp207
VSamuel M. Scheiner
p208
aVRichard F. Lyman
p209
asg11
Vhttp://www.mendeley.com//research/genetics-phenotypic-plasticity-ii-response-selection//
p210
sg13
V5427859591
p211
sa(dp212
g2
(lp213
sg4
V1983
p214
sg6
(lp215
VSamuel Michael Scheiner
p216
asg11
Vhttp://www.mendeley.com//research/persistence-danthonia-spicata-during-secondary-succession-1//
p217
sg13
V4011421713
p218
sa(dp219
g2
(lp220
sg4
V1988
p221
sg6
(lp222
VSamuel M. Scheiner
p223
asg11
Vhttp://www.mendeley.com//research/seed-bank-aboveground-vegetation-upland-pinehardwood-succession-1//
p224
sg13
V4011438663
p225
sa(dp226
g2
(lp227
sg4
V2010
p228
sg6
(lp229
VSamuel M. Scheiner
p230
asg11
Vhttp://www.mendeley.com//research/toward-conceptual-framework-biology-2//
p231
sg13
V4011437333
p232
sa(dp233
g2
(lp234
sg4
V1988
p235
sg6
(lp236
VSamuel M. Scheiner
p237
aVT. L. Sharik
p238
aV Roberts
p239
aV Vande
p240
asg11
Vhttp://www.mendeley.com//research/tree-density-modes-tree-recruitment-michigan-pine-hardwood-forest-after-clear-cutting-burning//
p241
sg13
V4011438613
p242
sa(dp243
g2
(lp244
sg4
V1989
p245
sg6
(lp246
VSamuel M. Scheiner
p247
asg11
Vhttp://www.mendeley.com//research/variable-selection-along-successional-gradient//
p248
sg13
V4011438413
p249
sa.