(lp0
(dp1
S'keywords'
p2
(lp3
sS'pub_year'
p4
V1978
p5
sS'authors'
p6
(lp7
VMJ Wade
p8
asS'uri'
p9
Vhttp://www.mendeley.com//research/critical-review-models-group-selection-2//
p10
sS'id'
p11
V5437526101
p12
sa(dp13
g2
(lp14
sg4
V1977
p15
sg6
(lp16
VMJ Wade
p17
asg9
Vhttp://www.mendeley.com//research/experimental-study-group-selection-4//
p18
sg11
V5437526031
p19
sa(dp20
g2
(lp21
sg4
V1988
p22
sg6
(lp23
VMJ Wade
p24
aVDE McCauley
p25
asg9
Vhttp://www.mendeley.com//research/extinction-recolonization-effects-genetic-differentiation-local-populations-1//
p26
sg11
V5437526061
p27
sa(dp28
g2
(lp29
Vanimals
p30
aVchoice behavior
p31
aVfemale
p32
aVmale
p33
aVmathematics
p34
aVmodels, biological
p35
aVprobability
p36
aVreproduction
p37
aVselection, genetic
p38
aVsex factors
p39
aVsexual behavior, animal
p40
asg4
V1990
p41
sg6
(lp42
VM J Wade
p43
aVS G Pruett-Jones
p44
asg9
Vhttp://www.mendeley.com//research/female-copying-increases-variance-male-mating-success//
p45
sg11
V5437526131
p46
sa(dp47
g2
(lp48
sg4
V1976
p49
sg6
(lp50
VM. J. Wade
p51
asg9
Vhttp://www.mendeley.com//research/group-selections-among-laboratory-populations-tribolium//
p52
sg11
V5437526111
p53
sa(dp54
g2
(lp55
sg4
V1978
p56
sg6
(lp57
VM Slatkin
p58
aVMJ Wade
p59
asg9
Vhttp://www.mendeley.com//research/group-selection-quantitative-character//
p60
sg11
V5437526121
p61
sa(dp62
g2
(lp63
sg4
V1980
p64
sg6
(lp65
VMJ Wade
p66
asg9
Vhttp://www.mendeley.com//research/kin-selection-components//
p67
sg11
V5437526021
p68
sa(dp69
g2
(lp70
sg4
V1984
p71
sg6
(lp72
VSJ Arnold
p73
aVMJ Wade
p74
asg9
Vhttp://www.mendeley.com//research/measurement-natural-sexual-selection-applications-2//
p75
sg11
V5437526051
p76
sa(dp77
g2
(lp78
sg4
V1984
p79
sg6
(lp80
VSJ Arnold
p81
aVMJ Wade
p82
asg9
Vhttp://www.mendeley.com//research/measurement-natural-sexual-selection-theory-1//
p83
sg11
V5437526041
p84
sa(dp85
g2
(lp86
sg4
V1979
p87
sg6
(lp88
VMJ Wade
p89
asg9
Vhttp://www.mendeley.com//research/american-society-naturalists-sexual-selection-variance-reproductive-success//
p90
sg11
V5437526081
p91
sa(dp92
g2
(lp93
sg4
V1985
p94
sg6
(lp95
VMJ Wade
p96
asg9
Vhttp://www.mendeley.com//research/contextual-analysis-models-group-selection-soft-selection-hard-selection-evolution-altruism-1//
p97
sg11
V5437526091
p98
sa(dp99
g2
(lp100
sg4
V1990
p101
sg6
(lp102
VMJ Wade
p103
aVS Kalisz
p104
asg9
Vhttp://www.mendeley.com//research/causes-natural-selection-1//
p105
sg11
V5437526071
p106
sa.