(dp0
S'test_account'
p1
(imendeley_client
MendeleyAccount
p2
(dp3
S'access_token'
p4
ccopy_reg
_reconstructor
p5
(coauth2
Token
p6
c__builtin__
object
p7
Ntp8
Rp9
(dp10
S'secret'
p11
V027ce7c9bc29c112114c1bff1d919fb0
p12
sS'key'
p13
V052f82b4dc9ad139818c135563988d29051aba3fe
p14
sbsbs.