(dp0
S'test_account'
p1
(imendeley_client
MendeleyAccount
p2
(dp3
S'access_token'
p4
ccopy_reg
_reconstructor
p5
(coauth2
Token
p6
c__builtin__
object
p7
Ntp8
Rp9
(dp10
S'secret'
p11
V55c0ef45de5a584efad3479b69cee87a
p12
sS'key'
p13
V8f054e8f15efabb4f1b44466fb6424fb051b20d3a
p14
sbsbs.